; Function Attrs: mustprogress nounwind uwtable
define dso_local void @_ZNK5clang4Stmt4dumpEv(ptr noundef nonnull align 8 dereferenceable(8) %0) local_unnamed_addr #0 align 2 {
  %2 = alloca %"class.clang::ASTDumper", align 8
  %3 = tail call noundef nonnull align 8 dereferenceable(96) ptr @_ZN4llvm4errsEv() #18
  store i8 0, ptr %2, align 8
  %4 = getelementptr inbounds nuw i8, ptr %2, i64 1
  store i8 0, ptr %4, align 1
  %5 = getelementptr inbounds nuw i8, ptr %2, i64 4
  store i32 0, ptr %5, align 4
  %6 = getelementptr inbounds nuw i8, ptr %2, i64 8
  call void @_ZN5clang14TextNodeDumperC1ERN4llvm11raw_ostreamEb(ptr noundef nonnull align 8 dereferenceable(1168) %6, ptr noundef nonnull align 8 dereferenceable(48) %3, i1 noundef zeroext false) #18
  %7 = getelementptr inbounds nuw i8, ptr %2, i64 1176
  store ptr %3, ptr %7, align 8
  %8 = getelementptr inbounds nuw i8, ptr %2, i64 1184
  store i8 0, ptr %8, align 8
  call void @_ZN5clang17TextTreeStructure8AddChildIZNS_16ASTNodeTraverserINS_9ASTDumperENS_14TextNodeDumperEE5VisitEPKNS_4StmtEN4llvm9StringRefEEUlvE_EEvSA_T_(ptr noundef nonnull align 8 dereferenceable(1096) %6, ptr null, i64 0, ptr nonnull %0, ptr nonnull %2)
  %9 = getelementptr inbounds i8, ptr %2, i64 1072
  call void @_ZNSt7__cxx1112basic_stringIcSt11char_traitsIcESaIcEED1Ev(ptr noundef nonnull align 8 dereferenceable(32) %9) #18
  %10 = getelementptr inbounds i8, ptr %2, i64 24
  %11 = load ptr, ptr %10, align 8
  %12 = call noundef i64 @_ZNK4llvm15SmallVectorBaseIjE4sizeEv(ptr noundef nonnull align 8 dereferenceable(16) %10) #18
  %.not4.i.i.i.i.i = icmp eq i64 %12, 0
  br i1 %.not4.i.i.i.i.i, label %_ZN4llvm23SmallVectorTemplateBaseISt8functionIFvbEELb0EE13destroy_rangeEPS3_S5_.exit.i.i.i.i, label %.lr.ph.i.preheader.i.i.i.i

.lr.ph.i.preheader.i.i.i.i:                       ; preds = %1
  %13 = getelementptr inbounds %"class.std::function", ptr %11, i64 %12
  br label %.lr.ph.i.i.i.i.i

.lr.ph.i.i.i.i.i:                                 ; preds = %_ZNSt8functionIFvbEED2Ev.exit.i.i.i.i.i, %.lr.ph.i.preheader.i.i.i.i
  %.05.i.i.i.i.i = phi ptr [ %14, %_ZNSt8functionIFvbEED2Ev.exit.i.i.i.i.i ], [ %13, %.lr.ph.i.preheader.i.i.i.i ]
  %14 = getelementptr inbounds i8, ptr %.05.i.i.i.i.i, i64 -32
  %15 = getelementptr inbounds i8, ptr %.05.i.i.i.i.i, i64 -16
  %16 = load ptr, ptr %15, align 8
  %.not.i.i.i.i.i.i.i = icmp eq ptr %16, null
  br i1 %.not.i.i.i.i.i.i.i, label %_ZNSt8functionIFvbEED2Ev.exit.i.i.i.i.i, label %17

17:                                               ; preds = %.lr.ph.i.i.i.i.i
  %18 = call noundef zeroext i1 %16(ptr noundef nonnull align 8 dereferenceable(16) %14, ptr noundef nonnull align 8 dereferenceable(16) %14, i32 noundef 3) #18
  br label %_ZNSt8functionIFvbEED2Ev.exit.i.i.i.i.i

_ZNSt8functionIFvbEED2Ev.exit.i.i.i.i.i:          ; preds = %17, %.lr.ph.i.i.i.i.i
  %.not.i.i.i.i.i = icmp eq ptr %11, %14
  br i1 %.not.i.i.i.i.i, label %_ZN4llvm23SmallVectorTemplateBaseISt8functionIFvbEELb0EE13destroy_rangeEPS3_S5_.exit.i.i.i.i, label %.lr.ph.i.i.i.i.i, !llvm.loop !14

_ZN4llvm23SmallVectorTemplateBaseISt8functionIFvbEELb0EE13destroy_rangeEPS3_S5_.exit.i.i.i.i: ; preds = %_ZNSt8functionIFvbEED2Ev.exit.i.i.i.i.i, %1
  %19 = load ptr, ptr %10, align 8
  %20 = getelementptr inbounds i8, ptr %2, i64 40
  %21 = icmp eq ptr %19, %20
  br i1 %21, label %_ZN5clang9ASTDumperD2Ev.exit, label %22

22:                                               ; preds = %_ZN4llvm23SmallVectorTemplateBaseISt8functionIFvbEELb0EE13destroy_rangeEPS3_S5_.exit.i.i.i.i
  call void @free(ptr noundef %19) #18
  br label %_ZN5clang9ASTDumperD2Ev.exit

_ZN5clang9ASTDumperD2Ev.exit:                     ; preds = %_ZN4llvm23SmallVectorTemplateBaseISt8functionIFvbEELb0EE13destroy_rangeEPS3_S5_.exit.i.i.i.i, %22
  ret void
}